(lp1
(lp2
(S' '
I163
tp3
aa(lp4
(S' '
I1
tp5
a(S'.'
I1
tp6
a(S'd'
I1
tp7
a(S'8'
I4
tp8
a(S'b'
I1
tp9
a(S'.'
I1
tp10
a(S' '
I12
tp11
a(S'd'
I1
tp12
a(S'8'
I3
tp13
a(S' '
I7
tp14
a(S'8'
I3
tp15
a(S' '
I2
tp16
a(S'.'
I1
tp17
a(S'd'
I1
tp18
a(S'8'
I4
tp19
a(S'b'
I1
tp20
a(S'.'
I1
tp21
a(S' '
I22
tp22
a(S'd'
I1
tp23
a(S'8'
I4
tp24
a(S' '
I2
tp25
a(S'8'
I3
tp26
a(S'b'
I1
tp27
a(S' '
I4
tp28
a(S'8'
I3
tp29
a(S' '
I8
tp30
a(S'8'
I7
tp31
a(S'b'
I1
tp32
a(S'.'
I1
tp33
a(S' '
I3
tp34
a(S'.'
I1
tp35
a(S'd'
I1
tp36
a(S'8'
I4
tp37
a(S'b'
I1
tp38
a(S'.'
I1
tp39
a(S' '
I2
tp40
a(S'8'
I9
tp41
a(S' '
I2
tp42
a(S'8'
I9
tp43
a(S' '
I2
tp44
a(S'8'
I3
tp45
a(S' '
I5
tp46
a(S'8'
I3
tp47
a(S' '
I15
tp48
aa(lp49
(S'd'
I1
tp50
a(S'8'
I2
tp51
a(S'P'
I1
tp52
a(S' '
I2
tp53
a(S'Y'
I1
tp54
a(S'8'
I2
tp55
a(S'b'
I1
tp56
a(S' '
I10
tp57
a(S'd'
I1
tp58
a(S'8'
I4
tp59
a(S' '
I7
tp60
a(S'8'
I3
tp61
a(S' '
I1
tp62
a(S'd'
I1
tp63
a(S'8'
I2
tp64
a(S'P'
I1
tp65
a(S' '
I2
tp66
a(S'Y'
I1
tp67
a(S'8'
I2
tp68
a(S'b'
I1
tp69
a(S' '
I20
tp70
a(S'd'
I1
tp71
a(S'8'
I1
tp72
a(S'P'
I1
tp73
a(S'8'
I3
tp74
a(S' '
I2
tp75
a(S'8'
I4
tp76
a(S'b'
I1
tp77
a(S' '
I3
tp78
a(S'8'
I3
tp79
a(S' '
I8
tp80
a(S'8'
I3
tp81
a(S' '
I3
tp82
a(S'Y'
I1
tp83
a(S'8'
I2
tp84
a(S'b'
I1
tp85
a(S' '
I1
tp86
a(S'd'
I1
tp87
a(S'8'
I2
tp88
a(S'P'
I1
tp89
a(S' '
I2
tp90
a(S'Y'
I1
tp91
a(S'8'
I2
tp92
a(S'b'
I1
tp93
a(S' '
I1
tp94
a(S'8'
I3
tp95
a(S' '
I8
tp96
a(S'8'
I3
tp97
a(S' '
I8
tp98
a(S'8'
I3
tp99
a(S' '
I5
tp100
a(S'8'
I3
tp101
a(S' '
I15
tp102
aa(lp103
(S'8'
I3
tp104
a(S' '
I4
tp105
a(S'8'
I3
tp106
a(S' '
I12
tp107
a(S'8'
I3
tp108
a(S' '
I7
tp109
a(S'8'
I3
tp110
a(S' '
I1
tp111
a(S'8'
I3
tp112
a(S' '
I4
tp113
a(S'8'
I3
tp114
a(S' '
I19
tp115
a(S'd'
I1
tp116
a(S'8'
I1
tp117
a(S'P'
I1
tp118
a(S' '
I1
tp119
a(S'8'
I3
tp120
a(S' '
I2
tp121
a(S'8'
I5
tp122
a(S'b'
I1
tp123
a(S' '
I2
tp124
a(S'8'
I3
tp125
a(S' '
I8
tp126
a(S'8'
I3
tp127
a(S' '
I4
tp128
a(S'8'
I3
tp129
a(S' '
I1
tp130
a(S'8'
I3
tp131
a(S' '
I4
tp132
a(S'8'
I3
tp133
a(S' '
I1
tp134
a(S'8'
I3
tp135
a(S' '
I8
tp136
a(S'8'
I3
tp137
a(S' '
I8
tp138
a(S'8'
I3
tp139
a(S' '
I5
tp140
a(S'8'
I3
tp141
a(S' '
I15
tp142
aa(lp143
(S'8'
I3
tp144
a(S' '
I8
tp145
a(S'8'
I3
tp146
a(S' '
I2
tp147
a(S'8'
I3
tp148
a(S' '
I3
tp149
a(S'8'
I3
tp150
a(S' '
I3
tp151
a(S'.'
I1
tp152
a(S'd'
I1
tp153
a(S'8'
I5
tp154
a(S' '
I1
tp155
a(S'8'
I3
tp156
a(S' '
I4
tp157
a(S'8'
I3
tp158
a(S' '
I8
tp159
a(S'8'
I3
tp160
a(S' '
I2
tp161
a(S'8'
I3
tp162
a(S' '
I2
tp163
a(S'd'
I1
tp164
a(S'8'
I1
tp165
a(S'P'
I1
tp166
a(S' '
I2
tp167
a(S'8'
I3
tp168
a(S' '
I2
tp169
a(S'8'
I3
tp170
a(S'Y'
I1
tp171
a(S'8'
I2
tp172
a(S'b'
I1
tp173
a(S' '
I1
tp174
a(S'8'
I3
tp175
a(S' '
I8
tp176
a(S'8'
I3
tp177
a(S' '
I3
tp178
a(S'd'
I1
tp179
a(S'8'
I2
tp180
a(S'P'
I1
tp181
a(S' '
I1
tp182
a(S'8'
I3
tp183
a(S' '
I4
tp184
a(S'8'
I3
tp185
a(S' '
I1
tp186
a(S'8'
I7
tp187
a(S'b'
I1
tp188
a(S'.'
I1
tp189
a(S' '
I2
tp190
a(S'8'
I7
tp191
a(S'b'
I1
tp192
a(S'.'
I1
tp193
a(S' '
I2
tp194
a(S'8'
I3
tp195
a(S' '
I5
tp196
a(S'8'
I3
tp197
a(S' '
I1
tp198
a(S'8'
I5
tp199
a(S'b'
I1
tp200
a(S'.'
I1
tp201
a(S'd'
I1
tp202
a(S'8'
I2
tp203
a(S'b'
I1
tp204
a(S'.'
I1
tp205
a(S' '
I2
tp206
aa(lp207
(S'8'
I3
tp208
a(S' '
I2
tp209
a(S'8'
I5
tp210
a(S' '
I1
tp211
a(S'8'
I3
tp212
a(S' '
I2
tp213
a(S'8'
I3
tp214
a(S' '
I3
tp215
a(S'8'
I3
tp216
a(S' '
I2
tp217
a(S'd'
I1
tp218
a(S'8'
I2
tp219
a(S'"'
I1
tp220
a(S' '
I1
tp221
a(S'8'
I3
tp222
a(S' '
I1
tp223
a(S'8'
I3
tp224
a(S' '
I4
tp225
a(S'8'
I3
tp226
a(S' '
I8
tp227
a(S'8'
I3
tp228
a(S' '
I2
tp229
a(S'8'
I3
tp230
a(S' '
I1
tp231
a(S'd'
I1
tp232
a(S'8'
I2
tp233
a(S' '
I3
tp234
a(S'8'
I3
tp235
a(S' '
I2
tp236
a(S'8'
I3
tp237
a(S' '
I1
tp238
a(S'Y'
I1
tp239
a(S'8'
I2
tp240
a(S'b'
I1
tp241
a(S'8'
I3
tp242
a(S' '
I8
tp243
a(S'8'
I7
tp244
a(S'P'
I1
tp245
a(S'"'
I1
tp246
a(S' '
I2
tp247
a(S'8'
I3
tp248
a(S' '
I4
tp249
a(S'8'
I3
tp250
a(S' '
I6
tp251
a(S'"'
I1
tp252
a(S'Y'
I1
tp253
a(S'8'
I2
tp254
a(S'b'
I1
tp255
a(S' '
I6
tp256
a(S'"'
I1
tp257
a(S'Y'
I1
tp258
a(S'8'
I2
tp259
a(S'b'
I1
tp260
a(S' '
I1
tp261
a(S'8'
I3
tp262
a(S' '
I5
tp263
a(S'8'
I3
tp264
a(S' '
I1
tp265
a(S'8'
I3
tp266
a(S' '
I1
tp267
a(S'"'
I1
tp268
a(S'8'
I3
tp269
a(S' '
I1
tp270
a(S'"'
I1
tp271
a(S'8'
I2
tp272
a(S'b'
I1
tp273
a(S' '
I1
tp274
aa(lp275
(S'8'
I3
tp276
a(S' '
I4
tp277
a(S'8'
I3
tp278
a(S' '
I1
tp279
a(S'8'
I3
tp280
a(S' '
I2
tp281
a(S'8'
I3
tp282
a(S' '
I3
tp283
a(S'8'
I3
tp284
a(S' '
I2
tp285
a(S'8'
I3
tp286
a(S' '
I2
tp287
a(S'8'
I3
tp288
a(S' '
I1
tp289
a(S'8'
I3
tp290
a(S' '
I4
tp291
a(S'8'
I3
tp292
a(S' '
I1
tp293
a(S'8'
I6
tp294
a(S' '
I1
tp295
a(S'Y'
I1
tp296
a(S'8'
I2
tp297
a(S' '
I2
tp298
a(S'8'
I2
tp299
a(S'P'
I1
tp300
a(S' '
I1
tp301
a(S'8'
I10
tp302
a(S' '
I1
tp303
a(S'8'
I3
tp304
a(S' '
I2
tp305
a(S'Y'
I1
tp306
a(S'8'
I5
tp307
a(S' '
I1
tp308
a(S'8'
I6
tp309
a(S' '
I1
tp310
a(S'8'
I3
tp311
a(S' '
I1
tp312
a(S'T'
I1
tp313
a(S'8'
I2
tp314
a(S'b'
I1
tp315
a(S' '
I3
tp316
a(S'8'
I3
tp317
a(S' '
I4
tp318
a(S'8'
I3
tp319
a(S' '
I8
tp320
a(S'8'
I3
tp321
a(S' '
I8
tp322
a(S'8'
I3
tp323
a(S' '
I1
tp324
a(S'8'
I3
tp325
a(S' '
I5
tp326
a(S'8'
I3
tp327
a(S' '
I1
tp328
a(S'8'
I3
tp329
a(S' '
I2
tp330
a(S'8'
I3
tp331
a(S' '
I2
tp332
a(S'8'
I3
tp333
a(S' '
I1
tp334
aa(lp335
(S'Y'
I1
tp336
a(S'8'
I2
tp337
a(S'b'
I1
tp338
a(S' '
I2
tp339
a(S'd'
I1
tp340
a(S'8'
I2
tp341
a(S'P'
I1
tp342
a(S' '
I1
tp343
a(S'Y'
I1
tp344
a(S'8'
I2
tp345
a(S'b'
I1
tp346
a(S' '
I1
tp347
a(S'8'
I3
tp348
a(S' '
I3
tp349
a(S'8'
I3
tp350
a(S' '
I2
tp351
a(S'Y'
I1
tp352
a(S'8'
I2
tp353
a(S'b'
I1
tp354
a(S' '
I1
tp355
a(S'8'
I3
tp356
a(S' '
I1
tp357
a(S'Y'
I1
tp358
a(S'8'
I2
tp359
a(S'b'
I1
tp360
a(S' '
I2
tp361
a(S'd'
I1
tp362
a(S'8'
I2
tp363
a(S'P'
I1
tp364
a(S' '
I9
tp365
a(S'Y'
I1
tp366
a(S'8'
I1
tp367
a(S'b'
I1
tp368
a(S'd'
I1
tp369
a(S'8'
I1
tp370
a(S'P'
I1
tp371
a(S' '
I8
tp372
a(S'8'
I3
tp373
a(S' '
I2
tp374
a(S'8'
I3
tp375
a(S' '
I3
tp376
a(S'Y'
I1
tp377
a(S'8'
I4
tp378
a(S' '
I8
tp379
a(S'8'
I3
tp380
a(S' '
I2
tp381
a(S'T'
I1
tp382
a(S'8'
I2
tp383
a(S'b'
I1
tp384
a(S' '
I2
tp385
a(S'Y'
I1
tp386
a(S'8'
I2
tp387
a(S'b'
I1
tp388
a(S' '
I2
tp389
a(S'd'
I1
tp390
a(S'8'
I2
tp391
a(S'P'
I1
tp392
a(S' '
I1
tp393
a(S'Y'
I1
tp394
a(S'8'
I2
tp395
a(S'b'
I1
tp396
a(S' '
I2
tp397
a(S'd'
I1
tp398
a(S'8'
I2
tp399
a(S'P'
I1
tp400
a(S' '
I1
tp401
a(S'Y'
I1
tp402
a(S'8'
I2
tp403
a(S'b'
I1
tp404
a(S' '
I2
tp405
a(S'd'
I1
tp406
a(S'8'
I2
tp407
a(S'P'
I1
tp408
a(S' '
I1
tp409
a(S'Y'
I1
tp410
a(S'8'
I2
tp411
a(S'b'
I1
tp412
a(S'.'
I1
tp413
a(S' '
I1
tp414
a(S'.'
I1
tp415
a(S'd'
I1
tp416
a(S'8'
I2
tp417
a(S'P'
I1
tp418
a(S' '
I1
tp419
a(S'8'
I3
tp420
a(S' '
I2
tp421
a(S'8'
I3
tp422
a(S' '
I2
tp423
a(S'8'
I3
tp424
a(S' '
I1
tp425
aa(lp426
(S' '
I1
tp427
a(S'"'
I1
tp428
a(S'Y'
I1
tp429
a(S'8'
I4
tp430
a(S'P'
I1
tp431
a(S'8'
I2
tp432
a(S' '
I2
tp433
a(S'"'
I1
tp434
a(S'Y'
I1
tp435
a(S'8'
I5
tp436
a(S' '
I1
tp437
a(S'8'
I7
tp438
a(S' '
I1
tp439
a(S'"'
I1
tp440
a(S'Y'
I1
tp441
a(S'8'
I5
tp442
a(S' '
I2
tp443
a(S'"'
I1
tp444
a(S'Y'
I1
tp445
a(S'8'
I4
tp446
a(S'P'
I1
tp447
a(S'"'
I1
tp448
a(S' '
I11
tp449
a(S'Y'
I1
tp450
a(S'8'
I2
tp451
a(S'P'
I1
tp452
a(S' '
I9
tp453
a(S'8'
I3
tp454
a(S' '
I2
tp455
a(S'8'
I3
tp456
a(S' '
I4
tp457
a(S'Y'
I1
tp458
a(S'8'
I3
tp459
a(S' '
I8
tp460
a(S'8'
I3
tp461
a(S' '
I3
tp462
a(S'T'
I1
tp463
a(S'8'
I2
tp464
a(S'b'
I1
tp465
a(S' '
I2
tp466
a(S'"'
I1
tp467
a(S'Y'
I1
tp468
a(S'8'
I4
tp469
a(S'P'
I1
tp470
a(S'"'
I1
tp471
a(S' '
I3
tp472
a(S'"'
I1
tp473
a(S'Y'
I1
tp474
a(S'8'
I4
tp475
a(S'P'
I1
tp476
a(S'"'
I1
tp477
a(S' '
I3
tp478
a(S'"'
I1
tp479
a(S'Y'
I1
tp480
a(S'8'
I4
tp481
a(S'P'
I1
tp482
a(S'"'
I1
tp483
a(S' '
I3
tp484
a(S'"'
I1
tp485
a(S'Y'
I1
tp486
a(S'8'
I5
tp487
a(S'P'
I1
tp488
a(S'"'
I1
tp489
a(S' '
I2
tp490
a(S'8'
I3
tp491
a(S' '
I2
tp492
a(S'8'
I3
tp493
a(S' '
I2
tp494
a(S'8'
I3
tp495
a(S' '
I1
tp496
aa(lp497
(S' '
I163
tp498
aa.